; Function Attrs: mustprogress nounwind uwtable
define dso_local { ptr, i64 } @_ZNK5clang6driver9ToolChain12getOSLibNameEv(ptr noundef nonnull align 8 dereferenceable(2168) %0) unnamed_addr #0 align 2 {
  %2 = getelementptr inbounds nuw i8, ptr %0, i64 16
  %3 = getelementptr inbounds i8, ptr %0, i64 60
  %4 = load i32, ptr %3, align 4
  %5 = and i32 %4, -9
  %spec.select.i.i = icmp eq i32 %5, 1
  br i1 %spec.select.i.i, label %16, label %6

6:                                                ; preds = %1
  switch i32 %4, label %12 [
    i32 26, label %16
    i32 5, label %16
    i32 27, label %16
    i32 29, label %16
    i32 30, label %16
    i32 3, label %7
    i32 10, label %8
    i32 11, label %9
    i32 12, label %10
    i32 19, label %11
  ]

7:                                                ; preds = %6
  br label %16

8:                                                ; preds = %6
  br label %16

9:                                                ; preds = %6
  br label %16

10:                                               ; preds = %6
  br label %16

11:                                               ; preds = %6
  br label %16

12:                                               ; preds = %6
  %13 = tail call { ptr, i64 } @_ZNK4llvm6Triple9getOSNameEv(ptr noundef nonnull align 8 dereferenceable(56) %2) #25
  %14 = extractvalue { ptr, i64 } %13, 0
  %15 = extractvalue { ptr, i64 } %13, 1
  br label %16

16:                                               ; preds = %1, %6, %6, %6, %6, %6, %12, %11, %10, %9, %8, %7
  %.sroa.8.0 = phi i64 [ %15, %12 ], [ 3, %11 ], [ 5, %10 ], [ 7, %9 ], [ 6, %8 ], [ 7, %7 ], [ 6, %6 ], [ 6, %6 ], [ 6, %6 ], [ 6, %6 ], [ 6, %6 ], [ 6, %1 ]
  %.sroa.0.0 = phi ptr [ %14, %12 ], [ @.str.25, %11 ], [ @.str.24, %10 ], [ @.str.23, %9 ], [ @.str.22, %8 ], [ @.str.21, %7 ], [ @.str.20, %6 ], [ @.str.20, %6 ], [ @.str.20, %6 ], [ @.str.20, %6 ], [ @.str.20, %6 ], [ @.str.20, %1 ]
  %.fca.0.insert = insertvalue { ptr, i64 } poison, ptr %.sroa.0.0, 0
  %.fca.1.insert = insertvalue { ptr, i64 } %.fca.0.insert, i64 %.sroa.8.0, 1
  ret { ptr, i64 } %.fca.1.insert
}